target datalayout = "e-m:e-p270:32:32-p271:32:32-p272:64:64-i64:64-i128:128-f80:128-n8:16:32:64-S128"
target triple = "x86_64-pc-linux-gnu"

%struct.URLContext = type { ptr, ptr, ptr, ptr, i32, i32, i32, i32, %struct.AVIOInterruptCB, i64, ptr, ptr, i32 }
%struct.AVIOInterruptCB = type { ptr, ptr }
%struct.SRTPProtoContext = type { ptr, ptr, ptr, ptr, ptr, ptr, %struct.SRTPContext, %struct.SRTPContext, [8192 x i8] }
%struct.SRTPContext = type { ptr, ptr, i32, i32, [16 x i8], [14 x i8], [16 x i8], [16 x i8], [14 x i8], [14 x i8], [20 x i8], [20 x i8], i32, i32, i32, i32 }

; Function Attrs: inlinehint nounwind uwtable
define internal i32 @ffurl_read(ptr noundef %0, ptr noundef %1, i32 noundef %2) #3 {
  %4 = alloca ptr, align 8
  %5 = alloca ptr, align 8
  %6 = alloca i32, align 4
  store ptr %0, ptr %4, align 8, !tbaa !4
  store ptr %1, ptr %5, align 8, !tbaa !9
  store i32 %2, ptr %6, align 4, !tbaa !11
  %7 = load ptr, ptr %4, align 8, !tbaa !4
  %8 = load ptr, ptr %5, align 8, !tbaa !9
  %9 = load i32, ptr %6, align 4, !tbaa !11
  %10 = call i32 @ffurl_read2(ptr noundef %7, ptr noundef %8, i32 noundef %9)
  ret i32 %10
}

; Function Attrs: nounwind uwtable
define internal i32 @srtp_read(ptr noundef %0, ptr noundef %1, i32 noundef %2) #0 {
  %4 = alloca ptr, align 8
  %5 = alloca ptr, align 8
  %6 = alloca i32, align 4
  %7 = alloca ptr, align 8
  %8 = alloca i32, align 4
  store ptr %0, ptr %4, align 8, !tbaa !4
  store ptr %1, ptr %5, align 8, !tbaa !9
  store i32 %2, ptr %6, align 4, !tbaa !11
  call void @llvm.lifetime.start.p0(i64 8, ptr %7) #4
  %9 = load ptr, ptr %4, align 8, !tbaa !4
  %10 = getelementptr inbounds nuw %struct.URLContext, ptr %9, i32 0, i32 2
  %11 = load ptr, ptr %10, align 8, !tbaa !16
  store ptr %11, ptr %7, align 8, !tbaa !22
  call void @llvm.lifetime.start.p0(i64 4, ptr %8) #4
  br label %12

12:                                               ; preds = %33, %3
  %13 = load ptr, ptr %7, align 8, !tbaa !22
  %14 = getelementptr inbounds nuw %struct.SRTPProtoContext, ptr %13, i32 0, i32 1
  %15 = load ptr, ptr %14, align 8, !tbaa !34
  %16 = load ptr, ptr %5, align 8, !tbaa !9
  %17 = load i32, ptr %6, align 4, !tbaa !11
  %18 = call i32 @ffurl_read(ptr noundef %15, ptr noundef %16, i32 noundef %17)
  store i32 %18, ptr %8, align 4, !tbaa !11
  %19 = load i32, ptr %8, align 4, !tbaa !11
  %20 = icmp sgt i32 %19, 0
  br i1 %20, label %21, label %35

21:                                               ; preds = %12
  %22 = load ptr, ptr %7, align 8, !tbaa !22
  %23 = getelementptr inbounds nuw %struct.SRTPProtoContext, ptr %22, i32 0, i32 7
  %24 = getelementptr inbounds nuw %struct.SRTPContext, ptr %23, i32 0, i32 0
  %25 = load ptr, ptr %24, align 8, !tbaa !37
  %26 = icmp ne ptr %25, null
  br i1 %26, label %27, label %35

27:                                               ; preds = %21
  %28 = load ptr, ptr %7, align 8, !tbaa !22
  %29 = getelementptr inbounds nuw %struct.SRTPProtoContext, ptr %28, i32 0, i32 7
  %30 = load ptr, ptr %5, align 8, !tbaa !9
  %31 = call i32 @ff_srtp_decrypt(ptr noundef %29, ptr noundef %30, ptr noundef %8)
  %32 = icmp slt i32 %31, 0
  br i1 %32, label %33, label %34

33:                                               ; preds = %27
  br label %12

34:                                               ; preds = %27
  br label %35

35:                                               ; preds = %34, %21, %12
  %36 = load i32, ptr %8, align 4, !tbaa !11
  call void @llvm.lifetime.end.p0(i64 4, ptr %8) #4
  call void @llvm.lifetime.end.p0(i64 8, ptr %7) #4
  ret i32 %36
}