; Function Attrs: nounwind uwtable
define internal i32 @srtp_read(ptr noundef readonly captures(none) %0, ptr noundef %1, i32 noundef %2) #0 {
  %4 = alloca i32, align 4
  %5 = getelementptr inbounds nuw i8, ptr %0, i64 16
  %6 = load ptr, ptr %5, align 8, !tbaa !4
  call void @llvm.lifetime.start.p0(i64 4, ptr nonnull %4) #4
  %7 = getelementptr inbounds nuw i8, ptr %6, i64 224
  %8 = getelementptr inbounds nuw i8, ptr %6, i64 8
  br label %9

9:                                                ; preds = %15, %3
  %10 = load ptr, ptr %8, align 8, !tbaa !27
  %11 = call i32 @ffurl_read2(ptr noundef %10, ptr noundef %1, i32 noundef %2) #4
  store i32 %11, ptr %4, align 4, !tbaa !24
  %12 = icmp sgt i32 %11, 0
  br i1 %12, label %13, label %split

13:                                               ; preds = %9
  %14 = load ptr, ptr %7, align 8, !tbaa !30
  %.not = icmp eq ptr %14, null
  br i1 %.not, label %split, label %15

15:                                               ; preds = %13
  %16 = call i32 @ff_srtp_decrypt(ptr noundef nonnull %7, ptr noundef %1, ptr noundef nonnull %4) #4
  %17 = icmp slt i32 %16, 0
  br i1 %17, label %9, label %._crit_edge

._crit_edge:                                      ; preds = %15
  %.pre = load i32, ptr %4, align 4, !tbaa !24
  br label %split

split:                                            ; preds = %13, %9, %._crit_edge
  %18 = phi i32 [ %.pre, %._crit_edge ], [ %11, %9 ], [ %11, %13 ]
  call void @llvm.lifetime.end.p0(i64 4, ptr nonnull %4) #4
  ret i32 %18
}